; Function Attrs: mustprogress nounwind uwtable
define hidden noundef i32 @_ZN13VectorSupport12klass2lengthEP13InstanceKlass(ptr noundef %0) local_unnamed_addr #0 align 2 {
  %2 = alloca %class.fieldDescriptor, align 8
  %3 = getelementptr inbounds i8, ptr %2, i64 4
  call void @llvm.memset.p0.i64(ptr noundef nonnull align 4 dereferenceable(22) %3, i8 0, i64 22, i1 false)
  %4 = getelementptr inbounds i8, ptr %2, i64 32
  call void @llvm.memset.p0.i64(ptr noundef nonnull align 8 dereferenceable(16) %4, i8 0, i64 16, i1 false)
  %5 = load ptr, ptr getelementptr inbounds (i8, ptr @_ZN6Symbol11_vm_symbolsE, i64 344), align 8
  %6 = load ptr, ptr getelementptr inbounds (i8, ptr @_ZN6Symbol11_vm_symbolsE, i64 6992), align 8
  %7 = load ptr, ptr %0, align 8
  %8 = getelementptr inbounds i8, ptr %7, i64 184
  %9 = load ptr, ptr %8, align 8
  %10 = call noundef ptr %9(ptr noundef nonnull align 8 dereferenceable(464) %0, ptr noundef %5, ptr noundef %6, ptr noundef nonnull %2) #8
  %11 = getelementptr inbounds i8, ptr %0, i64 112
  %12 = load ptr, ptr %11, align 8
  %13 = icmp eq ptr %12, null
  br i1 %13, label %_ZNK5Klass11java_mirrorEv.exit, label %14

14:                                               ; preds = %1
  %15 = load ptr, ptr @_ZN14AccessInternal15RuntimeDispatchILm548932EP7oopDescLNS_11BarrierTypeE2EE10_load_funcE, align 8
  %16 = call noundef ptr %15(ptr noundef nonnull %12) #8
  %17 = ptrtoint ptr %16 to i64
  br label %_ZNK5Klass11java_mirrorEv.exit

_ZNK5Klass11java_mirrorEv.exit:                   ; preds = %1, %14
  %18 = phi i64 [ %17, %14 ], [ 0, %1 ]
  %.sroa.1.0..sroa_idx.i = getelementptr inbounds i8, ptr %2, i64 8
  %.sroa.1.0.copyload.i = load i32, ptr %.sroa.1.0..sroa_idx.i, align 8
  %19 = sext i32 %.sroa.1.0.copyload.i to i64
  %20 = add nsw i64 %18, %19
  %21 = inttoptr i64 %20 to ptr
  %22 = load i32, ptr %21, align 4
  call void @_ZN18constantPoolHandleD1Ev(ptr noundef nonnull align 8 dereferenceable(16) %4) #8
  ret i32 %22
}